; Function Attrs: mustprogress uwtable
define hidden noundef zeroext i1 @_ZN15fpa_decl_plugin10is_numeralEP4expr(ptr noundef nonnull align 8 dereferenceable(1008) %this, ptr nocapture noundef readonly %n) local_unnamed_addr #3 align 2 personality ptr @__gxx_personality_v0 {
entry:
  %v = alloca %class.scoped_mpf, align 8
  %m_fm = getelementptr inbounds i8, ptr %this, i64 24
  store ptr %m_fm, ptr %v, align 8
  %m_num.i.i = getelementptr inbounds i8, ptr %v, i64 8
  call void @_ZN3mpfC1Ev(ptr noundef nonnull align 8 dereferenceable(32) %m_num.i.i)
  %call3 = invoke noundef zeroext i1 @_ZN15fpa_decl_plugin10is_numeralEP4exprR3mpf(ptr noundef nonnull align 8 dereferenceable(1008) %this, ptr noundef %n, ptr noundef nonnull align 8 dereferenceable(32) %m_num.i.i)
          to label %invoke.cont2 unwind label %lpad

invoke.cont2:                                     ; preds = %entry
  %0 = load ptr, ptr %v, align 8
  %m_mpz_manager.i.i.i = getelementptr inbounds i8, ptr %0, i64 728
  %1 = load ptr, ptr %m_mpz_manager.i.i.i, align 8
  %significand.i.i.i = getelementptr inbounds i8, ptr %v, i64 16
  invoke void @_ZN11mpz_managerILb0EE3delEPS0_R3mpz(ptr noundef nonnull %1, ptr noundef nonnull align 8 dereferenceable(16) %significand.i.i.i)
          to label %_ZN10scoped_mpfD2Ev.exit unwind label %terminate.lpad.i.i

terminate.lpad.i.i:                               ; preds = %invoke.cont2
  %2 = landingpad { ptr, i32 }
          catch ptr null
  %3 = extractvalue { ptr, i32 } %2, 0
  call void @__clang_call_terminate(ptr %3) #19
  unreachable

_ZN10scoped_mpfD2Ev.exit:                         ; preds = %invoke.cont2
  ret i1 %call3

lpad:                                             ; preds = %entry
  %4 = landingpad { ptr, i32 }
          cleanup
  call void @_ZN10scoped_mpfD2Ev(ptr noundef nonnull align 8 dereferenceable(40) %v) #18
  resume { ptr, i32 } %4
}